target datalayout = "e-m:e-p270:32:32-p271:32:32-p272:64:64-i64:64-i128:128-f80:128-n8:16:32:64-S128"
target triple = "x86_64-unknown-linux-gnu"

%struct.BdrvChild = type { ptr, ptr, ptr, i32, ptr, i64, i64, i8, i8, %struct.anon, %struct.anon.0 }
%struct.anon = type { ptr, ptr }
%struct.anon.0 = type { ptr, ptr }
%struct.BlockLimits = type { i32, i64, i32, i64, i32, i32, i32, i64, i32, i64, i64, i32, i8, i32, i32, i32, i32, i32, i32, i32 }
%struct.BlockDriverState = type { i32, i8, i8, i8, i8, i8, ptr, ptr, ptr, %struct.anon.1, i8, [4096 x i8], [4096 x i8], [4096 x i8], [16 x i8], ptr, [4096 x i8], %struct.BlockLimits, i32, i32, i32, i32, [32 x i8], %union.anon, %union.anon.2, %union.anon.3, i32, [16 x %struct.anon.4], ptr, %struct.anon.5, ptr, ptr, %struct.anon.6, ptr, ptr, i32, ptr, i64, i64, %struct.QemuMutex, %struct.anon.7, %struct.Stat64, i32, i32, i32, i32, i32, i32, %struct.QemuMutex, %struct.anon.8, %struct.CoQueue, i8, i32, i8, %struct.CoMutex, ptr, ptr }
%struct.anon.1 = type { ptr }
%union.anon = type { %struct.QTailQLink }
%struct.QTailQLink = type { ptr, ptr }
%union.anon.2 = type { %struct.QTailQLink }
%union.anon.3 = type { %struct.QTailQLink }
%struct.anon.4 = type { ptr }
%struct.anon.5 = type { ptr }
%struct.anon.6 = type { ptr }
%struct.anon.7 = type { ptr }
%struct.Stat64 = type { i64 }
%struct.QemuMutex = type { %union.pthread_mutex_t, i8 }
%union.pthread_mutex_t = type { %struct.__pthread_mutex_s }
%struct.__pthread_mutex_s = type { i32, i32, i32, i32, i32, i16, i16, %struct.__pthread_internal_list }
%struct.__pthread_internal_list = type { ptr, ptr }
%struct.anon.8 = type { ptr }
%struct.CoQueue = type { %struct.anon.9 }
%struct.anon.9 = type { ptr, ptr }
%struct.CoMutex = type { i32, ptr, %struct.anon.10, %struct.anon.10, i32, i32, ptr }
%struct.anon.10 = type { ptr }
%struct.BlockDriver = type { ptr, i32, i8, i8, i8, i8, i8, i8, ptr, ptr, ptr, ptr, ptr, ptr, ptr, ptr, ptr, ptr, ptr, ptr, ptr, ptr, ptr, ptr, ptr, ptr, ptr, ptr, ptr, ptr, ptr, ptr, ptr, ptr, ptr, ptr, ptr, ptr, ptr, ptr, ptr, ptr, ptr, ptr, ptr, ptr, ptr, ptr, ptr, ptr, ptr, ptr, ptr, ptr, ptr, ptr, ptr, ptr, ptr, ptr, ptr, %struct.anon.11, ptr, ptr, ptr, ptr, ptr, ptr, ptr, ptr, ptr, ptr, ptr, ptr, ptr, ptr, ptr, ptr, ptr, ptr, ptr, ptr, ptr, ptr, ptr, ptr, ptr, ptr, ptr, ptr, ptr, ptr, ptr, ptr, ptr, ptr, ptr, ptr, ptr, ptr, ptr, ptr, ptr, ptr, ptr, ptr, ptr, ptr, ptr, ptr, ptr }
%struct.anon.11 = type { ptr, ptr }
%struct.QEMUIOVector = type { ptr, i32, %union.anon.13 }
%union.anon.13 = type { %struct.anon.14 }
%struct.anon.14 = type { i32, %struct.iovec }
%struct.iovec = type { ptr, i64 }
%struct.anon.15 = type { [12 x i8], i64 }

@.str.4 = private unnamed_addr constant [13 x i8] c"coroutine_fn\00", section "llvm.metadata"
@.str.5 = private unnamed_addr constant [111 x i8] c"/home/dtcxzyw/WorkSpace/Projects/compilers/llvm-opt-benchmark/bench/qemu/qemu/include/block/block_int-common.h\00", section "llvm.metadata"

; Function Attrs: nounwind sspstrong uwtable
define dso_local void @bdrv_wakeup(ptr noundef %bs) #0 {
entry:
  %bs.addr = alloca ptr, align 8
  store ptr %bs, ptr %bs.addr, align 8
  br label %do.body

do.body:                                          ; preds = %entry
  br label %do.end

do.end:                                           ; preds = %do.body
  call void @aio_wait_kick()
  ret void
}

; Function Attrs: nounwind sspstrong uwtable
define internal ptr @child_bs(ptr noundef %child) #0 {
entry:
  %child.addr = alloca ptr, align 8
  store ptr %child, ptr %child.addr, align 8
  %0 = load ptr, ptr %child.addr, align 8
  %tobool = icmp ne ptr %0, null
  br i1 %tobool, label %cond.true, label %cond.false

cond.true:                                        ; preds = %entry
  %1 = load ptr, ptr %child.addr, align 8
  %bs = getelementptr inbounds %struct.BdrvChild, ptr %1, i32 0, i32 0
  %2 = load ptr, ptr %bs, align 8
  br label %cond.end

cond.false:                                       ; preds = %entry
  br label %cond.end

cond.end:                                         ; preds = %cond.false, %cond.true
  %cond = phi ptr [ %2, %cond.true ], [ null, %cond.false ]
  ret ptr %cond
}

; Function Attrs: nounwind sspstrong uwtable
define dso_local void @bdrv_dec_in_flight(ptr noundef %bs) #0 {
entry:
  %bs.addr = alloca ptr, align 8
  %.atomictmp = alloca i32, align 4
  %atomic-temp = alloca i32, align 4
  store ptr %bs, ptr %bs.addr, align 8
  br label %do.body

do.body:                                          ; preds = %entry
  br label %do.end

do.end:                                           ; preds = %do.body
  %0 = load ptr, ptr %bs.addr, align 8
  %in_flight = getelementptr inbounds %struct.BlockDriverState, ptr %0, i32 0, i32 43
  store i32 1, ptr %.atomictmp, align 4
  %1 = load i32, ptr %.atomictmp, align 4
  %2 = atomicrmw sub ptr %in_flight, i32 %1 seq_cst, align 4
  store i32 %2, ptr %atomic-temp, align 4
  %3 = load ptr, ptr %bs.addr, align 8
  call void @bdrv_wakeup(ptr noundef %3)
  ret void
}

; Function Attrs: nounwind sspstrong uwtable
define dso_local void @bdrv_inc_in_flight(ptr noundef %bs) #0 {
entry:
  %bs.addr = alloca ptr, align 8
  %.atomictmp = alloca i32, align 4
  %atomic-temp = alloca i32, align 4
  store ptr %bs, ptr %bs.addr, align 8
  br label %do.body

do.body:                                          ; preds = %entry
  br label %do.end

do.end:                                           ; preds = %do.body
  %0 = load ptr, ptr %bs.addr, align 8
  %in_flight = getelementptr inbounds %struct.BlockDriverState, ptr %0, i32 0, i32 43
  store i32 1, ptr %.atomictmp, align 4
  %1 = load i32, ptr %.atomictmp, align 4
  %2 = atomicrmw add ptr %in_flight, i32 %1 seq_cst, align 4
  store i32 %2, ptr %atomic-temp, align 4
  ret void
}

; Function Attrs: nounwind sspstrong uwtable
define internal ptr @bdrv_primary_bs(ptr noundef %bs) #0 {
entry:
  %bs.addr = alloca ptr, align 8
  store ptr %bs, ptr %bs.addr, align 8
  br label %do.body

do.body:                                          ; preds = %entry
  br label %do.end

do.end:                                           ; preds = %do.body
  %0 = load ptr, ptr %bs.addr, align 8
  %call = call ptr @bdrv_primary_child(ptr noundef %0)
  %call1 = call ptr @child_bs(ptr noundef %call)
  ret ptr %call1
}

; Function Attrs: nounwind sspstrong uwtable
define dso_local i32 @bdrv_co_readv_vmstate(ptr noundef %bs, ptr noundef %qiov, i64 noundef %pos) #0 {
entry:
  %retval = alloca i32, align 4
  %bs.addr = alloca ptr, align 8
  %qiov.addr = alloca ptr, align 8
  %pos.addr = alloca i64, align 8
  %drv = alloca ptr, align 8
  %child_bs = alloca ptr, align 8
  %ret = alloca i32, align 4
  store ptr %bs, ptr %bs.addr, align 8
  store ptr %qiov, ptr %qiov.addr, align 8
  store i64 %pos, ptr %pos.addr, align 8
  %0 = load ptr, ptr %bs.addr, align 8
  %drv1 = getelementptr inbounds %struct.BlockDriverState, ptr %0, i32 0, i32 6
  %1 = load ptr, ptr %drv1, align 8
  store ptr %1, ptr %drv, align 8
  %2 = load ptr, ptr %bs.addr, align 8
  %call = call ptr @bdrv_primary_bs(ptr noundef %2)
  store ptr %call, ptr %child_bs, align 8
  br label %do.body

do.body:                                          ; preds = %entry
  br label %do.end

do.end:                                           ; preds = %do.body
  call void @assert_bdrv_graph_readable()
  %3 = load i64, ptr %pos.addr, align 8
  %4 = load ptr, ptr %qiov.addr, align 8
  %5 = getelementptr inbounds %struct.QEMUIOVector, ptr %4, i32 0, i32 2
  %size = getelementptr inbounds %struct.anon.15, ptr %5, i32 0, i32 1
  %6 = load i64, ptr %size, align 8
  %7 = load ptr, ptr %qiov.addr, align 8
  %call2 = call i32 @bdrv_check_qiov_request(i64 noundef %3, i64 noundef %6, ptr noundef %7, i64 noundef 0, ptr noundef null)
  store i32 %call2, ptr %ret, align 4
  %8 = load i32, ptr %ret, align 4
  %cmp = icmp slt i32 %8, 0
  br i1 %cmp, label %if.then, label %if.end

if.then:                                          ; preds = %do.end
  %9 = load i32, ptr %ret, align 4
  store i32 %9, ptr %retval, align 4
  br label %return

if.end:                                           ; preds = %do.end
  %10 = load ptr, ptr %drv, align 8
  %tobool = icmp ne ptr %10, null
  br i1 %tobool, label %if.end4, label %if.then3

if.then3:                                         ; preds = %if.end
  store i32 -123, ptr %retval, align 4
  br label %return

if.end4:                                          ; preds = %if.end
  %11 = load ptr, ptr %bs.addr, align 8
  call void @bdrv_inc_in_flight(ptr noundef %11)
  %12 = load ptr, ptr %drv, align 8
  %bdrv_co_load_vmstate = getelementptr inbounds %struct.BlockDriver, ptr %12, i32 0, i32 97
  %13 = call ptr @llvm.ptr.annotation.p0.p0(ptr %bdrv_co_load_vmstate, ptr @.str.4, ptr @.str.5, i32 741, ptr null)
  %14 = load ptr, ptr %13, align 8
  %tobool5 = icmp ne ptr %14, null
  br i1 %tobool5, label %if.then6, label %if.else

if.then6:                                         ; preds = %if.end4
  %15 = load ptr, ptr %drv, align 8
  %bdrv_co_load_vmstate7 = getelementptr inbounds %struct.BlockDriver, ptr %15, i32 0, i32 97
  %16 = call ptr @llvm.ptr.annotation.p0.p0(ptr %bdrv_co_load_vmstate7, ptr @.str.4, ptr @.str.5, i32 741, ptr null)
  %17 = load ptr, ptr %16, align 8
  %18 = load ptr, ptr %bs.addr, align 8
  %19 = load ptr, ptr %qiov.addr, align 8
  %20 = load i64, ptr %pos.addr, align 8
  %call8 = call i32 %17(ptr noundef %18, ptr noundef %19, i64 noundef %20)
  store i32 %call8, ptr %ret, align 4
  br label %if.end14

if.else:                                          ; preds = %if.end4
  %21 = load ptr, ptr %child_bs, align 8
  %tobool9 = icmp ne ptr %21, null
  br i1 %tobool9, label %if.then10, label %if.else12

if.then10:                                        ; preds = %if.else
  %22 = load ptr, ptr %child_bs, align 8
  %23 = load ptr, ptr %qiov.addr, align 8
  %24 = load i64, ptr %pos.addr, align 8
  %call11 = call i32 @bdrv_co_readv_vmstate(ptr noundef %22, ptr noundef %23, i64 noundef %24)
  store i32 %call11, ptr %ret, align 4
  br label %if.end13

if.else12:                                        ; preds = %if.else
  store i32 -95, ptr %ret, align 4
  br label %if.end13

if.end13:                                         ; preds = %if.else12, %if.then10
  br label %if.end14

if.end14:                                         ; preds = %if.end13, %if.then6
  %25 = load ptr, ptr %bs.addr, align 8
  call void @bdrv_dec_in_flight(ptr noundef %25)
  %26 = load i32, ptr %ret, align 4
  store i32 %26, ptr %retval, align 4
  br label %return

return:                                           ; preds = %if.end14, %if.then3, %if.then
  %27 = load i32, ptr %retval, align 4
  ret i32 %27
}