; Function Attrs: nounwind sspstrong uwtable
define dso_local i32 @bdrv_co_readv_vmstate(ptr noundef %bs, ptr noundef %qiov, i64 noundef %pos) #0 {
entry:
  %drv1 = getelementptr inbounds nuw i8, ptr %bs, i64 16
  %0 = load ptr, ptr %drv1, align 8
  %call.i = tail call ptr @bdrv_primary_child(ptr noundef %bs) #15
  %tobool.not.i.i = icmp eq ptr %call.i, null
  br i1 %tobool.not.i.i, label %bdrv_primary_bs.exit, label %cond.true.i.i

cond.true.i.i:                                    ; preds = %entry
  %1 = load ptr, ptr %call.i, align 8
  br label %bdrv_primary_bs.exit

bdrv_primary_bs.exit:                             ; preds = %entry, %cond.true.i.i
  %cond.i.i = phi ptr [ %1, %cond.true.i.i ], [ null, %entry ]
  tail call void @assert_bdrv_graph_readable() #15
  %size = getelementptr inbounds nuw i8, ptr %qiov, i64 32
  %2 = load i64, ptr %size, align 8
  %call2 = tail call i32 @bdrv_check_qiov_request(i64 noundef %pos, i64 noundef %2, ptr noundef %qiov, i64 noundef 0, ptr noundef null)
  %cmp = icmp slt i32 %call2, 0
  br i1 %cmp, label %return, label %if.end

if.end:                                           ; preds = %bdrv_primary_bs.exit
  %tobool.not = icmp eq ptr %0, null
  br i1 %tobool.not, label %return, label %if.end4

if.end4:                                          ; preds = %if.end
  %in_flight.i = getelementptr inbounds nuw i8, ptr %bs, i64 16972
  %3 = atomicrmw add ptr %in_flight.i, i32 1 seq_cst, align 4
  %bdrv_co_load_vmstate = getelementptr inbounds nuw i8, ptr %0, i64 744
  %4 = tail call ptr @llvm.ptr.annotation.p0.p0(ptr nonnull %bdrv_co_load_vmstate, ptr nonnull @.str.4, ptr nonnull @.str.5, i32 741, ptr null)
  %5 = load ptr, ptr %4, align 8
  %tobool5.not = icmp eq ptr %5, null
  br i1 %tobool5.not, label %if.else, label %if.then6

if.then6:                                         ; preds = %if.end4
  %6 = tail call ptr @llvm.ptr.annotation.p0.p0(ptr nonnull %bdrv_co_load_vmstate, ptr nonnull @.str.4, ptr nonnull @.str.5, i32 741, ptr null)
  %7 = load ptr, ptr %6, align 8
  %call8 = tail call i32 %7(ptr noundef nonnull %bs, ptr noundef nonnull %qiov, i64 noundef %pos) #15
  br label %if.end14

if.else:                                          ; preds = %if.end4
  %tobool9.not = icmp eq ptr %cond.i.i, null
  br i1 %tobool9.not, label %if.end14, label %if.then10

if.then10:                                        ; preds = %if.else
  %call11 = tail call i32 @bdrv_co_readv_vmstate(ptr noundef nonnull %cond.i.i, ptr noundef nonnull %qiov, i64 noundef %pos)
  br label %if.end14

if.end14:                                         ; preds = %if.else, %if.then10, %if.then6
  %ret.0 = phi i32 [ %call8, %if.then6 ], [ %call11, %if.then10 ], [ -95, %if.else ]
  %8 = atomicrmw sub ptr %in_flight.i, i32 1 seq_cst, align 4
  tail call void @aio_wait_kick() #15
  br label %return

return:                                           ; preds = %if.end, %bdrv_primary_bs.exit, %if.end14
  %retval.0 = phi i32 [ %ret.0, %if.end14 ], [ %call2, %bdrv_primary_bs.exit ], [ -123, %if.end ]
  ret i32 %retval.0
}